target datalayout = "e-m:e-p270:32:32-p271:32:32-p272:64:64-i64:64-i128:128-f80:128-n8:16:32:64-S128"
target triple = "x86_64-pc-linux-gnu"

%"struct.std::_Rb_tree_header" = type { %"struct.std::_Rb_tree_node_base", i64 }
%"struct.std::_Rb_tree_node_base" = type { i32, ptr, ptr, ptr }
%"class.std::__cxx11::list.19" = type { %"class.std::__cxx11::_List_base.20" }
%"class.std::__cxx11::_List_base.20" = type { %"struct.std::__cxx11::_List_base<int, std::allocator<int>>::_List_impl" }
%"struct.std::__cxx11::_List_base<int, std::allocator<int>>::_List_impl" = type { %"struct.std::__detail::_List_node_header" }
%"struct.std::__detail::_List_node_header" = type { %"struct.std::__detail::_List_node_base", i64 }
%"struct.std::__detail::_List_node_base" = type { ptr, ptr }
%class.SdfGpuPlugin = type { %class.QObject, %class.FilterPlugin.base, i32, i32, i32, ptr, ptr, ptr, ptr, ptr, [3 x ptr], [3 x ptr], [3 x ptr], i32, float, float, float, float, float, ptr, ptr, ptr, i8, i8, i32, i32, i32, i32, i8, [3 x i8], %"class.vcg::tri::TriMesh<vcg::vertex::vector_ocf<CVertexO>, vcg::face::vector_ocf<CFaceO>>::PerFaceAttributeHandle", %"class.vcg::tri::TriMesh<vcg::vertex::vector_ocf<CVertexO>, vcg::face::vector_ocf<CFaceO>>::PerVertexAttributeHandle", %class.MeshLabPlugin, %class.MeshLabPluginLogger }
%class.QObject = type { ptr, %class.QScopedPointer }
%class.QScopedPointer = type { ptr }
%class.FilterPlugin.base = type { ptr, ptr, %"class.std::__cxx11::list", %"class.std::__cxx11::list.19" }
%"class.std::__cxx11::list" = type { %"class.std::__cxx11::_List_base" }
%"class.std::__cxx11::_List_base" = type { %"struct.std::__cxx11::_List_base<QAction *, std::allocator<QAction *>>::_List_impl" }
%"struct.std::__cxx11::_List_base<QAction *, std::allocator<QAction *>>::_List_impl" = type { %"struct.std::__detail::_List_node_header" }
%"class.vcg::tri::TriMesh<vcg::vertex::vector_ocf<CVertexO>, vcg::face::vector_ocf<CFaceO>>::PerFaceAttributeHandle" = type { %"class.vcg::tri::TriMesh<vcg::vertex::vector_ocf<CVertexO>, vcg::face::vector_ocf<CFaceO>>::AttributeHandle.base", [4 x i8] }
%"class.vcg::tri::TriMesh<vcg::vertex::vector_ocf<CVertexO>, vcg::face::vector_ocf<CFaceO>>::AttributeHandle.base" = type <{ ptr, i32 }>
%"class.vcg::tri::TriMesh<vcg::vertex::vector_ocf<CVertexO>, vcg::face::vector_ocf<CFaceO>>::PerVertexAttributeHandle" = type { %"class.vcg::tri::TriMesh<vcg::vertex::vector_ocf<CVertexO>, vcg::face::vector_ocf<CFaceO>>::AttributeHandle.base.25", [4 x i8] }
%"class.vcg::tri::TriMesh<vcg::vertex::vector_ocf<CVertexO>, vcg::face::vector_ocf<CFaceO>>::AttributeHandle.base.25" = type <{ ptr, i32 }>
%class.MeshLabPlugin = type { ptr, i8, %class.QFileInfo }
%class.QFileInfo = type { %class.QSharedDataPointer }
%class.QSharedDataPointer = type { ptr }
%class.MeshLabPluginLogger = type { ptr, ptr }
%"struct.std::_Rb_tree_key_compare.45" = type { %"struct.std::less.46" }
%"struct.std::less.46" = type { i8 }
%"class.std::__cxx11::basic_string" = type { %"struct.std::__cxx11::basic_string<char>::_Alloc_hider", i64, %union.anon.195 }
%"struct.std::__cxx11::basic_string<char>::_Alloc_hider" = type { ptr }
%union.anon.195 = type { i64, [8 x i8] }
%"class.std::allocator.192" = type { i8 }
%class.GPUProgram = type <{ ptr, ptr, ptr, i32, [4 x i8], %"class.std::map.179", %"class.std::map.179", %"class.std::map.184", i32, i32, i32, [4 x i8] }>
%"class.std::map.179" = type { %"class.std::_Rb_tree.180" }
%"class.std::_Rb_tree.180" = type { %"struct.std::_Rb_tree<std::__cxx11::basic_string<char>, std::pair<const std::__cxx11::basic_string<char>, int>, std::_Select1st<std::pair<const std::__cxx11::basic_string<char>, int>>, std::less<std::__cxx11::basic_string<char>>>::_Rb_tree_impl" }
%"struct.std::_Rb_tree<std::__cxx11::basic_string<char>, std::pair<const std::__cxx11::basic_string<char>, int>, std::_Select1st<std::pair<const std::__cxx11::basic_string<char>, int>>, std::less<std::__cxx11::basic_string<char>>>::_Rb_tree_impl" = type { %"struct.std::_Rb_tree_key_compare.45", %"struct.std::_Rb_tree_header" }
%"class.std::map.184" = type { %"class.std::_Rb_tree.185" }
%"class.std::_Rb_tree.185" = type { %"struct.std::_Rb_tree<unsigned int, std::pair<const unsigned int, std::pair<unsigned int, unsigned int>>, std::_Select1st<std::pair<const unsigned int, std::pair<unsigned int, unsigned int>>>, std::less<unsigned int>>::_Rb_tree_impl" }
%"struct.std::_Rb_tree<unsigned int, std::pair<const unsigned int, std::pair<unsigned int, unsigned int>>, std::_Select1st<std::pair<const unsigned int, std::pair<unsigned int, unsigned int>>>, std::less<unsigned int>>::_Rb_tree_impl" = type { %"struct.std::_Rb_tree_key_compare.189", %"struct.std::_Rb_tree_header" }
%"struct.std::_Rb_tree_key_compare.189" = type { %"struct.std::less.190" }
%"struct.std::less.190" = type { i8 }

@.str.75 = private unnamed_addr constant [17 x i8] c"textureLastDepth\00", align 1
@.str.76 = private unnamed_addr constant [10 x i8] c"tolerance\00", align 1
@.str.77 = private unnamed_addr constant [15 x i8] c"oneOverBufSize\00", align 1
@__glewActiveTexture = external global ptr, align 8
@__glewUseProgram = external global ptr, align 8
@__glewUniform1f = external global ptr, align 8
@__glewUniform2f = external global ptr, align 8
@__glewUniform1i = external global ptr, align 8

; Function Attrs: mustprogress uwtable
define linkonce_odr void @_ZN10GPUProgram12setUniform1iERKNSt7__cxx1112basic_stringIcSt11char_traitsIcESaIcEEEi(ptr noundef nonnull align 8 dereferenceable(188) %0, ptr noundef nonnull align 8 dereferenceable(32) %1, i32 noundef %2) #5 comdat align 2 {
  %4 = alloca ptr, align 8
  %5 = alloca ptr, align 8
  %6 = alloca i32, align 4
  store ptr %0, ptr %4, align 8
  store ptr %1, ptr %5, align 8
  store i32 %2, ptr %6, align 4
  %7 = load ptr, ptr %4, align 8
  %8 = load ptr, ptr @__glewUniform1i, align 8
  %9 = getelementptr inbounds %class.GPUProgram, ptr %7, i32 0, i32 5
  %10 = load ptr, ptr %5, align 8
  %11 = call noundef nonnull align 4 dereferenceable(4) ptr @_ZNSt3mapINSt7__cxx1112basic_stringIcSt11char_traitsIcESaIcEEEiSt4lessIS5_ESaISt4pairIKS5_iEEEixERS9_(ptr noundef nonnull align 8 dereferenceable(48) %9, ptr noundef nonnull align 8 dereferenceable(32) %10)
  %12 = load i32, ptr %11, align 4
  %13 = load i32, ptr %6, align 4
  call void %8(i32 noundef %12, i32 noundef %13)
  ret void
}

; Function Attrs: mustprogress uwtable
define linkonce_odr void @_ZN10GPUProgram12setUniform2fERKNSt7__cxx1112basic_stringIcSt11char_traitsIcESaIcEEEff(ptr noundef nonnull align 8 dereferenceable(188) %0, ptr noundef nonnull align 8 dereferenceable(32) %1, float noundef %2, float noundef %3) #5 comdat align 2 {
  %5 = alloca ptr, align 8
  %6 = alloca ptr, align 8
  %7 = alloca float, align 4
  %8 = alloca float, align 4
  store ptr %0, ptr %5, align 8
  store ptr %1, ptr %6, align 8
  store float %2, ptr %7, align 4
  store float %3, ptr %8, align 4
  %9 = load ptr, ptr %5, align 8
  %10 = load ptr, ptr @__glewUniform2f, align 8
  %11 = getelementptr inbounds %class.GPUProgram, ptr %9, i32 0, i32 5
  %12 = load ptr, ptr %6, align 8
  %13 = call noundef nonnull align 4 dereferenceable(4) ptr @_ZNSt3mapINSt7__cxx1112basic_stringIcSt11char_traitsIcESaIcEEEiSt4lessIS5_ESaISt4pairIKS5_iEEEixERS9_(ptr noundef nonnull align 8 dereferenceable(48) %11, ptr noundef nonnull align 8 dereferenceable(32) %12)
  %14 = load i32, ptr %13, align 4
  %15 = load float, ptr %7, align 4
  %16 = load float, ptr %8, align 4
  call void %10(i32 noundef %14, float noundef %15, float noundef %16)
  ret void
}

; Function Attrs: mustprogress uwtable
define linkonce_odr void @_ZN10GPUProgram12setUniform1fERKNSt7__cxx1112basic_stringIcSt11char_traitsIcESaIcEEEf(ptr noundef nonnull align 8 dereferenceable(188) %0, ptr noundef nonnull align 8 dereferenceable(32) %1, float noundef %2) #5 comdat align 2 {
  %4 = alloca ptr, align 8
  %5 = alloca ptr, align 8
  %6 = alloca float, align 4
  store ptr %0, ptr %4, align 8
  store ptr %1, ptr %5, align 8
  store float %2, ptr %6, align 4
  %7 = load ptr, ptr %4, align 8
  %8 = load ptr, ptr @__glewUniform1f, align 8
  %9 = getelementptr inbounds %class.GPUProgram, ptr %7, i32 0, i32 5
  %10 = load ptr, ptr %5, align 8
  %11 = call noundef nonnull align 4 dereferenceable(4) ptr @_ZNSt3mapINSt7__cxx1112basic_stringIcSt11char_traitsIcESaIcEEEiSt4lessIS5_ESaISt4pairIKS5_iEEEixERS9_(ptr noundef nonnull align 8 dereferenceable(48) %9, ptr noundef nonnull align 8 dereferenceable(32) %10)
  %12 = load i32, ptr %11, align 4
  %13 = load float, ptr %6, align 4
  call void %8(i32 noundef %12, float noundef %13)
  ret void
}

; Function Attrs: mustprogress nounwind uwtable
define linkonce_odr noundef i32 @_ZNK10GPUProgram2idEv(ptr noundef nonnull align 8 dereferenceable(188) %0) #4 comdat align 2 {
  %2 = alloca ptr, align 8
  store ptr %0, ptr %2, align 8
  %3 = load ptr, ptr %2, align 8
  %4 = getelementptr inbounds %class.GPUProgram, ptr %3, i32 0, i32 3
  %5 = load i32, ptr %4, align 8
  ret i32 %5
}

; Function Attrs: mustprogress uwtable
define void @_ZN12SdfGpuPlugin21useDepthPeelingShaderEP17FramebufferObject(ptr noundef nonnull align 8 dereferenceable(312) %0, ptr noundef %1) #5 align 2 personality ptr @__gxx_personality_v0 {
  %3 = alloca ptr, align 8
  %4 = alloca ptr, align 8
  %5 = alloca %"class.std::__cxx11::basic_string", align 8
  %6 = alloca %"class.std::allocator.192", align 1
  %7 = alloca ptr, align 8
  %8 = alloca i32, align 4
  %9 = alloca %"class.std::__cxx11::basic_string", align 8
  %10 = alloca %"class.std::allocator.192", align 1
  %11 = alloca %"class.std::__cxx11::basic_string", align 8
  %12 = alloca %"class.std::allocator.192", align 1
  store ptr %0, ptr %3, align 8
  store ptr %1, ptr %4, align 8
  %13 = load ptr, ptr %3, align 8
  %14 = load ptr, ptr @__glewUseProgram, align 8
  %15 = getelementptr inbounds %class.SdfGpuPlugin, ptr %13, i32 0, i32 19
  %16 = load ptr, ptr %15, align 8
  %17 = call noundef i32 @_ZNK10GPUProgram2idEv(ptr noundef nonnull align 8 dereferenceable(188) %16)
  call void %14(i32 noundef %17)
  %18 = getelementptr inbounds %class.SdfGpuPlugin, ptr %13, i32 0, i32 19
  %19 = load ptr, ptr %18, align 8
  call void @_ZNSaIcEC1Ev(ptr noundef nonnull align 1 dereferenceable(1) %6) #3
  invoke void @_ZNSt7__cxx1112basic_stringIcSt11char_traitsIcESaIcEEC1EPKcRKS3_(ptr noundef nonnull align 8 dereferenceable(32) %5, ptr noundef @.str.76, ptr noundef nonnull align 1 dereferenceable(1) %6)
          to label %20 unwind label %43

20:                                               ; preds = %2
  %21 = getelementptr inbounds %class.SdfGpuPlugin, ptr %13, i32 0, i32 14
  %22 = load float, ptr %21, align 4
  invoke void @_ZN10GPUProgram12setUniform1fERKNSt7__cxx1112basic_stringIcSt11char_traitsIcESaIcEEEf(ptr noundef nonnull align 8 dereferenceable(188) %19, ptr noundef nonnull align 8 dereferenceable(32) %5, float noundef %22)
          to label %23 unwind label %47

23:                                               ; preds = %20
  call void @_ZNSt7__cxx1112basic_stringIcSt11char_traitsIcESaIcEED1Ev(ptr noundef nonnull align 8 dereferenceable(32) %5) #3
  call void @_ZNSaIcED1Ev(ptr noundef nonnull align 1 dereferenceable(1) %6) #3
  %24 = getelementptr inbounds %class.SdfGpuPlugin, ptr %13, i32 0, i32 19
  %25 = load ptr, ptr %24, align 8
  call void @_ZNSaIcEC1Ev(ptr noundef nonnull align 1 dereferenceable(1) %10) #3
  invoke void @_ZNSt7__cxx1112basic_stringIcSt11char_traitsIcESaIcEEC1EPKcRKS3_(ptr noundef nonnull align 8 dereferenceable(32) %9, ptr noundef @.str.77, ptr noundef nonnull align 1 dereferenceable(1) %10)
          to label %26 unwind label %52

26:                                               ; preds = %23
  %27 = getelementptr inbounds %class.SdfGpuPlugin, ptr %13, i32 0, i32 13
  %28 = load i32, ptr %27, align 8
  %29 = uitofp i32 %28 to float
  %30 = fdiv float 1.000000e+00, %29
  %31 = getelementptr inbounds %class.SdfGpuPlugin, ptr %13, i32 0, i32 13
  %32 = load i32, ptr %31, align 8
  %33 = uitofp i32 %32 to float
  %34 = fdiv float 1.000000e+00, %33
  invoke void @_ZN10GPUProgram12setUniform2fERKNSt7__cxx1112basic_stringIcSt11char_traitsIcESaIcEEEff(ptr noundef nonnull align 8 dereferenceable(188) %25, ptr noundef nonnull align 8 dereferenceable(32) %9, float noundef %30, float noundef %34)
          to label %35 unwind label %56

35:                                               ; preds = %26
  call void @_ZNSt7__cxx1112basic_stringIcSt11char_traitsIcESaIcEED1Ev(ptr noundef nonnull align 8 dereferenceable(32) %9) #3
  call void @_ZNSaIcED1Ev(ptr noundef nonnull align 1 dereferenceable(1) %10) #3
  %36 = load ptr, ptr @__glewActiveTexture, align 8
  call void %36(i32 noundef 33984)
  %37 = load ptr, ptr %4, align 8
  %38 = call noundef i32 @_ZN17FramebufferObject13getAttachedIdEj(ptr noundef nonnull align 4 dereferenceable(8) %37, i32 noundef 36096)
  call void @glBindTexture(i32 noundef 3553, i32 noundef %38)
  %39 = getelementptr inbounds %class.SdfGpuPlugin, ptr %13, i32 0, i32 19
  %40 = load ptr, ptr %39, align 8
  call void @_ZNSaIcEC1Ev(ptr noundef nonnull align 1 dereferenceable(1) %12) #3
  invoke void @_ZNSt7__cxx1112basic_stringIcSt11char_traitsIcESaIcEEC1EPKcRKS3_(ptr noundef nonnull align 8 dereferenceable(32) %11, ptr noundef @.str.75, ptr noundef nonnull align 1 dereferenceable(1) %12)
          to label %41 unwind label %61

41:                                               ; preds = %35
  invoke void @_ZN10GPUProgram12setUniform1iERKNSt7__cxx1112basic_stringIcSt11char_traitsIcESaIcEEEi(ptr noundef nonnull align 8 dereferenceable(188) %40, ptr noundef nonnull align 8 dereferenceable(32) %11, i32 noundef 0)
          to label %42 unwind label %65

42:                                               ; preds = %41
  call void @_ZNSt7__cxx1112basic_stringIcSt11char_traitsIcESaIcEED1Ev(ptr noundef nonnull align 8 dereferenceable(32) %11) #3
  call void @_ZNSaIcED1Ev(ptr noundef nonnull align 1 dereferenceable(1) %12) #3
  ret void

43:                                               ; preds = %2
  %44 = landingpad { ptr, i32 }
          cleanup
  %45 = extractvalue { ptr, i32 } %44, 0
  store ptr %45, ptr %7, align 8
  %46 = extractvalue { ptr, i32 } %44, 1
  store i32 %46, ptr %8, align 4
  br label %51

47:                                               ; preds = %20
  %48 = landingpad { ptr, i32 }
          cleanup
  %49 = extractvalue { ptr, i32 } %48, 0
  store ptr %49, ptr %7, align 8
  %50 = extractvalue { ptr, i32 } %48, 1
  store i32 %50, ptr %8, align 4
  call void @_ZNSt7__cxx1112basic_stringIcSt11char_traitsIcESaIcEED1Ev(ptr noundef nonnull align 8 dereferenceable(32) %5) #3
  br label %51

51:                                               ; preds = %47, %43
  call void @_ZNSaIcED1Ev(ptr noundef nonnull align 1 dereferenceable(1) %6) #3
  br label %70

52:                                               ; preds = %23
  %53 = landingpad { ptr, i32 }
          cleanup
  %54 = extractvalue { ptr, i32 } %53, 0
  store ptr %54, ptr %7, align 8
  %55 = extractvalue { ptr, i32 } %53, 1
  store i32 %55, ptr %8, align 4
  br label %60

56:                                               ; preds = %26
  %57 = landingpad { ptr, i32 }
          cleanup
  %58 = extractvalue { ptr, i32 } %57, 0
  store ptr %58, ptr %7, align 8
  %59 = extractvalue { ptr, i32 } %57, 1
  store i32 %59, ptr %8, align 4
  call void @_ZNSt7__cxx1112basic_stringIcSt11char_traitsIcESaIcEED1Ev(ptr noundef nonnull align 8 dereferenceable(32) %9) #3
  br label %60

60:                                               ; preds = %56, %52
  call void @_ZNSaIcED1Ev(ptr noundef nonnull align 1 dereferenceable(1) %10) #3
  br label %70

61:                                               ; preds = %35
  %62 = landingpad { ptr, i32 }
          cleanup
  %63 = extractvalue { ptr, i32 } %62, 0
  store ptr %63, ptr %7, align 8
  %64 = extractvalue { ptr, i32 } %62, 1
  store i32 %64, ptr %8, align 4
  br label %69

65:                                               ; preds = %41
  %66 = landingpad { ptr, i32 }
          cleanup
  %67 = extractvalue { ptr, i32 } %66, 0
  store ptr %67, ptr %7, align 8
  %68 = extractvalue { ptr, i32 } %66, 1
  store i32 %68, ptr %8, align 4
  call void @_ZNSt7__cxx1112basic_stringIcSt11char_traitsIcESaIcEED1Ev(ptr noundef nonnull align 8 dereferenceable(32) %11) #3
  br label %69

69:                                               ; preds = %65, %61
  call void @_ZNSaIcED1Ev(ptr noundef nonnull align 1 dereferenceable(1) %12) #3
  br label %70

70:                                               ; preds = %69, %60, %51
  %71 = load ptr, ptr %7, align 8
  %72 = load i32, ptr %8, align 4
  %73 = insertvalue { ptr, i32 } poison, ptr %71, 0
  %74 = insertvalue { ptr, i32 } %73, i32 %72, 1
  resume { ptr, i32 } %74
}