; Function Attrs: mustprogress uwtable
define void @_ZN12SdfGpuPlugin21useDepthPeelingShaderEP17FramebufferObject(ptr nocapture noundef nonnull readonly align 8 dereferenceable(312) %0, ptr noundef %1) local_unnamed_addr #9 align 2 personality ptr @__gxx_personality_v0 {
  %3 = alloca %"class.std::__cxx11::basic_string", align 8
  %4 = alloca %"class.std::allocator.192", align 1
  %5 = alloca %"class.std::__cxx11::basic_string", align 8
  %6 = alloca %"class.std::allocator.192", align 1
  %7 = alloca %"class.std::__cxx11::basic_string", align 8
  %8 = alloca %"class.std::allocator.192", align 1
  %9 = load ptr, ptr @__glewUseProgram, align 8
  %10 = getelementptr inbounds i8, ptr %0, i64 232
  %11 = load ptr, ptr %10, align 8
  %12 = getelementptr inbounds i8, ptr %11, i64 24
  %13 = load i32, ptr %12, align 8
  tail call void %9(i32 noundef %13)
  %14 = load ptr, ptr %10, align 8
  call void @_ZNSaIcEC1Ev(ptr noundef nonnull align 1 dereferenceable(1) %4) #26
  invoke void @_ZNSt7__cxx1112basic_stringIcSt11char_traitsIcESaIcEEC1EPKcRKS3_(ptr noundef nonnull align 8 dereferenceable(32) %3, ptr noundef nonnull @.str.76, ptr noundef nonnull align 1 dereferenceable(1) %4)
          to label %15 unwind label %40

15:                                               ; preds = %2
  %16 = getelementptr inbounds i8, ptr %0, i64 212
  %17 = load float, ptr %16, align 4
  %18 = load ptr, ptr @__glewUniform1f, align 8
  %19 = getelementptr inbounds i8, ptr %14, i64 32
  %20 = invoke noundef nonnull align 4 dereferenceable(4) ptr @_ZNSt3mapINSt7__cxx1112basic_stringIcSt11char_traitsIcESaIcEEEiSt4lessIS5_ESaISt4pairIKS5_iEEEixERS9_(ptr noundef nonnull align 8 dereferenceable(48) %19, ptr noundef nonnull align 8 dereferenceable(32) %3)
          to label %.noexc unwind label %42

.noexc:                                           ; preds = %15
  %21 = load i32, ptr %20, align 4
  invoke void %18(i32 noundef %21, float noundef %17)
          to label %_ZN10GPUProgram12setUniform1fERKNSt7__cxx1112basic_stringIcSt11char_traitsIcESaIcEEEf.exit unwind label %42

_ZN10GPUProgram12setUniform1fERKNSt7__cxx1112basic_stringIcSt11char_traitsIcESaIcEEEf.exit: ; preds = %.noexc
  call void @_ZNSt7__cxx1112basic_stringIcSt11char_traitsIcESaIcEED1Ev(ptr noundef nonnull align 8 dereferenceable(32) %3) #26
  call void @_ZNSaIcED1Ev(ptr noundef nonnull align 1 dereferenceable(1) %4) #26
  %22 = load ptr, ptr %10, align 8
  call void @_ZNSaIcEC1Ev(ptr noundef nonnull align 1 dereferenceable(1) %6) #26
  invoke void @_ZNSt7__cxx1112basic_stringIcSt11char_traitsIcESaIcEEC1EPKcRKS3_(ptr noundef nonnull align 8 dereferenceable(32) %5, ptr noundef nonnull @.str.77, ptr noundef nonnull align 1 dereferenceable(1) %6)
          to label %23 unwind label %44

23:                                               ; preds = %_ZN10GPUProgram12setUniform1fERKNSt7__cxx1112basic_stringIcSt11char_traitsIcESaIcEEEf.exit
  %24 = getelementptr inbounds i8, ptr %0, i64 208
  %25 = load i32, ptr %24, align 8
  %26 = load ptr, ptr @__glewUniform2f, align 8
  %27 = getelementptr inbounds i8, ptr %22, i64 32
  %28 = invoke noundef nonnull align 4 dereferenceable(4) ptr @_ZNSt3mapINSt7__cxx1112basic_stringIcSt11char_traitsIcESaIcEEEiSt4lessIS5_ESaISt4pairIKS5_iEEEixERS9_(ptr noundef nonnull align 8 dereferenceable(48) %27, ptr noundef nonnull align 8 dereferenceable(32) %5)
          to label %.noexc14 unwind label %46

.noexc14:                                         ; preds = %23
  %29 = uitofp i32 %25 to float
  %30 = fdiv float 1.000000e+00, %29
  %31 = load i32, ptr %28, align 4
  invoke void %26(i32 noundef %31, float noundef %30, float noundef %30)
          to label %_ZN10GPUProgram12setUniform2fERKNSt7__cxx1112basic_stringIcSt11char_traitsIcESaIcEEEff.exit unwind label %46

_ZN10GPUProgram12setUniform2fERKNSt7__cxx1112basic_stringIcSt11char_traitsIcESaIcEEEff.exit: ; preds = %.noexc14
  call void @_ZNSt7__cxx1112basic_stringIcSt11char_traitsIcESaIcEED1Ev(ptr noundef nonnull align 8 dereferenceable(32) %5) #26
  call void @_ZNSaIcED1Ev(ptr noundef nonnull align 1 dereferenceable(1) %6) #26
  %32 = load ptr, ptr @__glewActiveTexture, align 8
  call void %32(i32 noundef 33984)
  %33 = call noundef i32 @_ZN17FramebufferObject13getAttachedIdEj(ptr noundef nonnull align 4 dereferenceable(8) %1, i32 noundef 36096)
  call void @glBindTexture(i32 noundef 3553, i32 noundef %33)
  %34 = load ptr, ptr %10, align 8
  call void @_ZNSaIcEC1Ev(ptr noundef nonnull align 1 dereferenceable(1) %8) #26
  invoke void @_ZNSt7__cxx1112basic_stringIcSt11char_traitsIcESaIcEEC1EPKcRKS3_(ptr noundef nonnull align 8 dereferenceable(32) %7, ptr noundef nonnull @.str.75, ptr noundef nonnull align 1 dereferenceable(1) %8)
          to label %35 unwind label %48

35:                                               ; preds = %_ZN10GPUProgram12setUniform2fERKNSt7__cxx1112basic_stringIcSt11char_traitsIcESaIcEEEff.exit
  %36 = load ptr, ptr @__glewUniform1i, align 8
  %37 = getelementptr inbounds i8, ptr %34, i64 32
  %38 = invoke noundef nonnull align 4 dereferenceable(4) ptr @_ZNSt3mapINSt7__cxx1112basic_stringIcSt11char_traitsIcESaIcEEEiSt4lessIS5_ESaISt4pairIKS5_iEEEixERS9_(ptr noundef nonnull align 8 dereferenceable(48) %37, ptr noundef nonnull align 8 dereferenceable(32) %7)
          to label %.noexc16 unwind label %50

.noexc16:                                         ; preds = %35
  %39 = load i32, ptr %38, align 4
  invoke void %36(i32 noundef %39, i32 noundef 0)
          to label %_ZN10GPUProgram12setUniform1iERKNSt7__cxx1112basic_stringIcSt11char_traitsIcESaIcEEEi.exit unwind label %50

_ZN10GPUProgram12setUniform1iERKNSt7__cxx1112basic_stringIcSt11char_traitsIcESaIcEEEi.exit: ; preds = %.noexc16
  call void @_ZNSt7__cxx1112basic_stringIcSt11char_traitsIcESaIcEED1Ev(ptr noundef nonnull align 8 dereferenceable(32) %7) #26
  call void @_ZNSaIcED1Ev(ptr noundef nonnull align 1 dereferenceable(1) %8) #26
  ret void

40:                                               ; preds = %2
  %41 = landingpad { ptr, i32 }
          cleanup
  br label %52

42:                                               ; preds = %.noexc, %15
  %43 = landingpad { ptr, i32 }
          cleanup
  call void @_ZNSt7__cxx1112basic_stringIcSt11char_traitsIcESaIcEED1Ev(ptr noundef nonnull align 8 dereferenceable(32) %3) #26
  br label %52

44:                                               ; preds = %_ZN10GPUProgram12setUniform1fERKNSt7__cxx1112basic_stringIcSt11char_traitsIcESaIcEEEf.exit
  %45 = landingpad { ptr, i32 }
          cleanup
  br label %52

46:                                               ; preds = %.noexc14, %23
  %47 = landingpad { ptr, i32 }
          cleanup
  call void @_ZNSt7__cxx1112basic_stringIcSt11char_traitsIcESaIcEED1Ev(ptr noundef nonnull align 8 dereferenceable(32) %5) #26
  br label %52

48:                                               ; preds = %_ZN10GPUProgram12setUniform2fERKNSt7__cxx1112basic_stringIcSt11char_traitsIcESaIcEEEff.exit
  %49 = landingpad { ptr, i32 }
          cleanup
  br label %52

50:                                               ; preds = %.noexc16, %35
  %51 = landingpad { ptr, i32 }
          cleanup
  call void @_ZNSt7__cxx1112basic_stringIcSt11char_traitsIcESaIcEED1Ev(ptr noundef nonnull align 8 dereferenceable(32) %7) #26
  br label %52

52:                                               ; preds = %48, %50, %44, %46, %40, %42
  %.sink = phi ptr [ %4, %42 ], [ %4, %40 ], [ %6, %46 ], [ %6, %44 ], [ %8, %50 ], [ %8, %48 ]
  %.pn10.pn = phi { ptr, i32 } [ %43, %42 ], [ %41, %40 ], [ %47, %46 ], [ %45, %44 ], [ %51, %50 ], [ %49, %48 ]
  call void @_ZNSaIcED1Ev(ptr noundef nonnull align 1 dereferenceable(1) %.sink) #26
  resume { ptr, i32 } %.pn10.pn
}